target datalayout = "e-m:e-p270:32:32-p271:32:32-p272:64:64-i64:64-i128:128-f80:128-n8:16:32:64-S128"
target triple = "x86_64-pc-linux-gnu"

@unpack_unreachable = internal global i32 0, align 4
@unpack_unreachable_expiration = internal global i64 0, align 8

; Function Attrs: nounwind uwtable
define internal i32 @option_parse_unpack_unreachable(ptr noundef %0, ptr noundef %1, i32 noundef %2) #0 {
  %4 = alloca ptr, align 8
  %5 = alloca ptr, align 8
  %6 = alloca i32, align 4
  store ptr %0, ptr %4, align 8, !tbaa !127
  store ptr %1, ptr %5, align 8, !tbaa !24
  store i32 %2, ptr %6, align 4, !tbaa !27
  %7 = load i32, ptr %6, align 4, !tbaa !27
  %8 = icmp ne i32 %7, 0
  br i1 %8, label %9, label %10

9:                                                ; preds = %3
  store i32 0, ptr @unpack_unreachable, align 4, !tbaa !27
  store i64 0, ptr @unpack_unreachable_expiration, align 8, !tbaa !13
  br label %17

10:                                               ; preds = %3
  store i32 1, ptr @unpack_unreachable, align 4, !tbaa !27
  %11 = load ptr, ptr %5, align 8, !tbaa !24
  %12 = icmp ne ptr %11, null
  br i1 %12, label %13, label %16

13:                                               ; preds = %10
  %14 = load ptr, ptr %5, align 8, !tbaa !24
  %15 = call i64 @approxidate_careful(ptr noundef %14, ptr noundef null)
  store i64 %15, ptr @unpack_unreachable_expiration, align 8, !tbaa !13
  br label %16

16:                                               ; preds = %13, %10
  br label %17

17:                                               ; preds = %16, %9
  ret i32 0
}