; Function Attrs: nounwind uwtable
define internal noundef i32 @option_parse_unpack_unreachable(ptr readnone captures(none) %0, ptr noundef %1, i32 noundef %2) #0 {
  %.not = icmp eq i32 %2, 0
  br i1 %.not, label %5, label %4

4:                                                ; preds = %3
  store i1 false, ptr @unpack_unreachable, align 4
  br label %.sink.split

5:                                                ; preds = %3
  store i1 true, ptr @unpack_unreachable, align 4
  %.not2 = icmp eq ptr %1, null
  br i1 %.not2, label %8, label %6

6:                                                ; preds = %5
  %7 = tail call i64 @approxidate_careful(ptr noundef nonnull %1, ptr noundef null) #25
  br label %.sink.split

.sink.split:                                      ; preds = %4, %6
  %.sink = phi i64 [ %7, %6 ], [ 0, %4 ]
  store i64 %.sink, ptr @unpack_unreachable_expiration, align 8, !tbaa !28
  br label %8

8:                                                ; preds = %.sink.split, %5
  ret i32 0
}